
build/main.elf:     file format elf32-littlearm

SYMBOL TABLE:
08000000 l    d  .isr_vector	00000000 .isr_vector
08000194 l    d  .text	00000000 .text
080003dc l    d  .rodata	00000000 .rodata
080003e0 l    d  .init_array	00000000 .init_array
080003e8 l    d  .fini_array	00000000 .fini_array
20000000 l    d  .data	00000000 .data
20000430 l    d  .bss	00000000 .bss
2000044c l    d  ._user_heap_stack	00000000 ._user_heap_stack
00000000 l    d  .ARM.attributes	00000000 .ARM.attributes
00000000 l    d  .comment	00000000 .comment
00000000 l    d  .debug_info	00000000 .debug_info
00000000 l    d  .debug_abbrev	00000000 .debug_abbrev
00000000 l    d  .debug_loc	00000000 .debug_loc
00000000 l    d  .debug_aranges	00000000 .debug_aranges
00000000 l    d  .debug_line	00000000 .debug_line
00000000 l    d  .debug_str	00000000 .debug_str
00000000 l    d  .debug_frame	00000000 .debug_frame
00000000 l    d  .debug_ranges	00000000 .debug_ranges
00000000 l    df *ABS*	00000000 ccaW9Ko7.o
0800036c l       .text	00000000 LoopCopyDataInit
08000364 l       .text	00000000 CopyDataInit
08000380 l       .text	00000000 LoopFillZerobss
0800037a l       .text	00000000 FillZerobss
080003ac l       .text	00000000 Infinite_Loop
00000000 l    df *ABS*	00000000 crtstuff.c
080003c4 l     O .text	00000000 __EH_FRAME_BEGIN__
08000194 l     F .text	00000000 deregister_tm_clones
080001b0 l     F .text	00000000 register_tm_clones
080001d4 l     F .text	00000000 __do_global_dtors_aux
20000430 l       .bss	00000001 completed.1
080003e8 l     O .fini_array	00000000 __do_global_dtors_aux_fini_array_entry
080001fc l     F .text	00000000 frame_dummy
20000434 l       .bss	00000018 object.0
080003e4 l     O .init_array	00000000 __frame_dummy_init_array_entry
00000000 l    df *ABS*	00000000 atexit.c
00000000 l    df *ABS*	00000000 fini.c
00000000 l    df *ABS*	00000000 init.c
00000000 l    df *ABS*	00000000 __atexit.c
00000000 l    df *ABS*	00000000 
00000000 l    df *ABS*	00000000 __call_atexit.c
080003b0 l     F .text	00000014 register_fini
00000000 l    df *ABS*	00000000 crti.o
00000000 l    df *ABS*	00000000 crtn.o
00000000 l    df *ABS*	00000000 impure.c
20000008 l     O .data	00000428 impure_data
00000000 l    df *ABS*	00000000 
080003ec l       .fini_array	00000000 __fini_array_end
080003e8 l       .fini_array	00000000 __fini_array_start
080003e8 l       .init_array	00000000 __init_array_end
080003e0 l       .init_array	00000000 __preinit_array_end
080003e0 l       .init_array	00000000 __init_array_start
080003e0 l       .init_array	00000000 __preinit_array_start
080003ac  w    F .text	00000002 RTC_Alarm_IRQHandler
080003ac  w    F .text	00000002 EXTI2_IRQHandler
080003ac  w    F .text	00000002 DebugMon_Handler
080003ac  w    F .text	00000002 SPI4_IRQHandler
080003ac  w    F .text	00000002 TIM1_CC_IRQHandler
080003ac  w    F .text	00000002 DMA2_Stream5_IRQHandler
080003ac  w    F .text	00000002 HardFault_Handler
080003ac  w    F .text	00000002 DMA1_Stream5_IRQHandler
00004000 g       *ABS*	00000000 _Min_Stack_Size
080003ac  w    F .text	00000002 SysTick_Handler
080003ac  w    F .text	00000002 PVD_IRQHandler
080003ac  w    F .text	00000002 SDIO_IRQHandler
080003ac  w    F .text	00000002 TAMP_STAMP_IRQHandler
080003ec g       *ABS*	00000000 _sidata
080003ac  w    F .text	00000002 PendSV_Handler
080003ac  w    F .text	00000002 NMI_Handler
080003e0 g       .init_array	00000000 __exidx_end
080003ac  w    F .text	00000002 EXTI3_IRQHandler
080003ac  w    F .text	00000002 TIM1_UP_TIM10_IRQHandler
080003dc g       .text	00000000 _etext
20000430 g       .bss	00000000 _sbss
080003ac  w    F .text	00000002 I2C3_ER_IRQHandler
20000430 g     O .data	00000000 .hidden __TMC_END__
080003ac  w    F .text	00000002 EXTI0_IRQHandler
080003ac  w    F .text	00000002 I2C2_EV_IRQHandler
080003ac  w    F .text	00000002 DMA1_Stream2_IRQHandler
080003ac  w    F .text	00000002 FPU_IRQHandler
080003ac  w    F .text	00000002 UsageFault_Handler
080003ac  w    F .text	00000002 DMA2_Stream2_IRQHandler
20000430 g       .bss	00000000 __bss_start__
20000000 g       .data	00000000 _sdata
080003ac  w    F .text	00000002 SPI1_IRQHandler
080003ac  w    F .text	00000002 TIM1_BRK_TIM9_IRQHandler
080003e0 g       .init_array	00000000 __exidx_start
080003ac  w    F .text	00000002 DMA2_Stream3_IRQHandler
080003dc g     O .rodata	00000004 _global_impure_ptr
08000254 g     F .text	00000048 __libc_init_array
080003ac  w    F .text	00000002 USART6_IRQHandler
080003c4 g     F .text	00000000 _init
08000228 g     F .text	0000002c __libc_fini_array
2000044c g       .bss	00000000 _ebss
0800035c  w    F .text	00000038 Reset_Handler
080003ac  w    F .text	00000002 DMA2_Stream0_IRQHandler
080003ac  w    F .text	00000002 TIM4_IRQHandler
080003ac  w    F .text	00000002 I2C1_EV_IRQHandler
080003ac  w    F .text	00000002 DMA1_Stream6_IRQHandler
080003ac  w    F .text	00000002 DMA1_Stream1_IRQHandler
2000044c g       .bss	00000000 __bss_end__
08000358 g     F .text	00000002 TIM3_IRQHandler
080003ac  w    F .text	00000002 RCC_IRQHandler
00000000 g       *ABS*	00000000 _Min_Heap_Size
080003ac g       .text	00000002 Default_Handler
080003ac  w    F .text	00000002 EXTI15_10_IRQHandler
0800029c g     F .text	00000068 __register_exitproc
080003ac  w    F .text	00000002 ADC_IRQHandler
080003ac  w    F .text	00000002 DMA1_Stream7_IRQHandler
080003ac  w    F .text	00000002 TIM5_IRQHandler
080003ac  w    F .text	00000002 DMA2_Stream7_IRQHandler
080003ac  w    F .text	00000002 I2C3_EV_IRQHandler
080003ac  w    F .text	00000002 EXTI9_5_IRQHandler
080003ac  w    F .text	00000002 RTC_WKUP_IRQHandler
080003ac  w    F .text	00000002 SPI2_IRQHandler
080003ac  w    F .text	00000002 MemManage_Handler
08000304 g     F .text	00000004 main
080003ac  w    F .text	00000002 DMA1_Stream0_IRQHandler
080003ac  w    F .text	00000002 SVC_Handler
080003ac  w    F .text	00000002 EXTI4_IRQHandler
08000308 g     F .text	00000050 SystemInit
080003d0 g     F .text	00000000 _fini
0800021c g     F .text	0000000c atexit
20000000 g     O .data	00000004 _impure_ptr
080003ac  w    F .text	00000002 WWDG_IRQHandler
080003ac  w    F .text	00000002 TIM2_IRQHandler
080003ac  w    F .text	00000002 OTG_FS_WKUP_IRQHandler
080003ac  w    F .text	00000002 TIM1_TRG_COM_TIM11_IRQHandler
20010000 g       .isr_vector	00000000 _estack
080003ac  w    F .text	00000002 EXTI1_IRQHandler
20000430 g       .data	00000000 _edata
080003ac  w    F .text	00000002 USART2_IRQHandler
08000000 g     O .isr_vector	00000000 g_pfnVectors
080003ac  w    F .text	00000002 I2C2_ER_IRQHandler
080003ac  w    F .text	00000002 DMA2_Stream1_IRQHandler
080003ac  w    F .text	00000002 FLASH_IRQHandler
080003ac  w    F .text	00000002 DMA2_Stream4_IRQHandler
080003ac  w    F .text	00000002 BusFault_Handler
080003ac  w    F .text	00000002 USART1_IRQHandler
080003ac  w    F .text	00000002 OTG_FS_IRQHandler
080003ac  w    F .text	00000002 SPI3_IRQHandler
080003ac  w    F .text	00000002 DMA1_Stream4_IRQHandler
080003ac  w    F .text	00000002 I2C1_ER_IRQHandler
080003ac  w    F .text	00000002 DMA2_Stream6_IRQHandler
080003ac  w    F .text	00000002 DMA1_Stream3_IRQHandler



Disassembly of section .text:

08000194 <deregister_tm_clones>:
 8000194:	4803      	ldr	r0, [pc, #12]	; (80001a4 <deregister_tm_clones+0x10>)
 8000196:	4b04      	ldr	r3, [pc, #16]	; (80001a8 <deregister_tm_clones+0x14>)
 8000198:	4283      	cmp	r3, r0
 800019a:	d002      	beq.n	80001a2 <deregister_tm_clones+0xe>
 800019c:	4b03      	ldr	r3, [pc, #12]	; (80001ac <deregister_tm_clones+0x18>)
 800019e:	b103      	cbz	r3, 80001a2 <deregister_tm_clones+0xe>
 80001a0:	4718      	bx	r3
 80001a2:	4770      	bx	lr
 80001a4:	20000430 	.word	0x20000430
 80001a8:	20000430 	.word	0x20000430
 80001ac:	00000000 	.word	0x00000000

080001b0 <register_tm_clones>:
 80001b0:	4805      	ldr	r0, [pc, #20]	; (80001c8 <register_tm_clones+0x18>)
 80001b2:	4906      	ldr	r1, [pc, #24]	; (80001cc <register_tm_clones+0x1c>)
 80001b4:	1a0b      	subs	r3, r1, r0
 80001b6:	0fd9      	lsrs	r1, r3, #31
 80001b8:	eb01 01a3 	add.w	r1, r1, r3, asr #2
 80001bc:	1049      	asrs	r1, r1, #1
 80001be:	d002      	beq.n	80001c6 <register_tm_clones+0x16>
 80001c0:	4b03      	ldr	r3, [pc, #12]	; (80001d0 <register_tm_clones+0x20>)
 80001c2:	b103      	cbz	r3, 80001c6 <register_tm_clones+0x16>
 80001c4:	4718      	bx	r3
 80001c6:	4770      	bx	lr
 80001c8:	20000430 	.word	0x20000430
 80001cc:	20000430 	.word	0x20000430
 80001d0:	00000000 	.word	0x00000000

080001d4 <__do_global_dtors_aux>:
 80001d4:	b510      	push	{r4, lr}
 80001d6:	4c06      	ldr	r4, [pc, #24]	; (80001f0 <__do_global_dtors_aux+0x1c>)
 80001d8:	7823      	ldrb	r3, [r4, #0]
 80001da:	b943      	cbnz	r3, 80001ee <__do_global_dtors_aux+0x1a>
 80001dc:	f7ff ffda 	bl	8000194 <deregister_tm_clones>
 80001e0:	4b04      	ldr	r3, [pc, #16]	; (80001f4 <__do_global_dtors_aux+0x20>)
 80001e2:	b113      	cbz	r3, 80001ea <__do_global_dtors_aux+0x16>
 80001e4:	4804      	ldr	r0, [pc, #16]	; (80001f8 <__do_global_dtors_aux+0x24>)
 80001e6:	f3af 8000 	nop.w
 80001ea:	2301      	movs	r3, #1
 80001ec:	7023      	strb	r3, [r4, #0]
 80001ee:	bd10      	pop	{r4, pc}
 80001f0:	20000430 	.word	0x20000430
 80001f4:	00000000 	.word	0x00000000
 80001f8:	080003c4 	.word	0x080003c4

080001fc <frame_dummy>:
 80001fc:	b508      	push	{r3, lr}
 80001fe:	4b04      	ldr	r3, [pc, #16]	; (8000210 <frame_dummy+0x14>)
 8000200:	b11b      	cbz	r3, 800020a <frame_dummy+0xe>
 8000202:	4904      	ldr	r1, [pc, #16]	; (8000214 <frame_dummy+0x18>)
 8000204:	4804      	ldr	r0, [pc, #16]	; (8000218 <frame_dummy+0x1c>)
 8000206:	f3af 8000 	nop.w
 800020a:	e8bd 4008 	ldmia.w	sp!, {r3, lr}
 800020e:	e7cf      	b.n	80001b0 <register_tm_clones>
 8000210:	00000000 	.word	0x00000000
 8000214:	20000434 	.word	0x20000434
 8000218:	080003c4 	.word	0x080003c4

0800021c <atexit>:
 800021c:	2300      	movs	r3, #0
 800021e:	4601      	mov	r1, r0
 8000220:	461a      	mov	r2, r3
 8000222:	4618      	mov	r0, r3
 8000224:	f000 b83a 	b.w	800029c <__register_exitproc>

08000228 <__libc_fini_array>:
 8000228:	b538      	push	{r3, r4, r5, lr}
 800022a:	4b08      	ldr	r3, [pc, #32]	; (800024c <__libc_fini_array+0x24>)
 800022c:	4d08      	ldr	r5, [pc, #32]	; (8000250 <__libc_fini_array+0x28>)
 800022e:	1b5b      	subs	r3, r3, r5
 8000230:	109c      	asrs	r4, r3, #2
 8000232:	d007      	beq.n	8000244 <__libc_fini_array+0x1c>
 8000234:	3b04      	subs	r3, #4
 8000236:	441d      	add	r5, r3
 8000238:	3c01      	subs	r4, #1
 800023a:	f855 3904 	ldr.w	r3, [r5], #-4
 800023e:	4798      	blx	r3
 8000240:	2c00      	cmp	r4, #0
 8000242:	d1f9      	bne.n	8000238 <__libc_fini_array+0x10>
 8000244:	e8bd 4038 	ldmia.w	sp!, {r3, r4, r5, lr}
 8000248:	f000 b8c2 	b.w	80003d0 <_fini>
 800024c:	080003ec 	.word	0x080003ec
 8000250:	080003e8 	.word	0x080003e8

08000254 <__libc_init_array>:
 8000254:	b570      	push	{r4, r5, r6, lr}
 8000256:	4e0d      	ldr	r6, [pc, #52]	; (800028c <__libc_init_array+0x38>)
 8000258:	4d0d      	ldr	r5, [pc, #52]	; (8000290 <__libc_init_array+0x3c>)
 800025a:	1b76      	subs	r6, r6, r5
 800025c:	10b6      	asrs	r6, r6, #2
 800025e:	d006      	beq.n	800026e <__libc_init_array+0x1a>
 8000260:	2400      	movs	r4, #0
 8000262:	f855 3b04 	ldr.w	r3, [r5], #4
 8000266:	3401      	adds	r4, #1
 8000268:	4798      	blx	r3
 800026a:	42a6      	cmp	r6, r4
 800026c:	d1f9      	bne.n	8000262 <__libc_init_array+0xe>
 800026e:	4e09      	ldr	r6, [pc, #36]	; (8000294 <__libc_init_array+0x40>)
 8000270:	4d09      	ldr	r5, [pc, #36]	; (8000298 <__libc_init_array+0x44>)
 8000272:	1b76      	subs	r6, r6, r5
 8000274:	f000 f8a6 	bl	80003c4 <_init>
 8000278:	10b6      	asrs	r6, r6, #2
 800027a:	d006      	beq.n	800028a <__libc_init_array+0x36>
 800027c:	2400      	movs	r4, #0
 800027e:	f855 3b04 	ldr.w	r3, [r5], #4
 8000282:	3401      	adds	r4, #1
 8000284:	4798      	blx	r3
 8000286:	42a6      	cmp	r6, r4
 8000288:	d1f9      	bne.n	800027e <__libc_init_array+0x2a>
 800028a:	bd70      	pop	{r4, r5, r6, pc}
 800028c:	080003e0 	.word	0x080003e0
 8000290:	080003e0 	.word	0x080003e0
 8000294:	080003e8 	.word	0x080003e8
 8000298:	080003e0 	.word	0x080003e0

0800029c <__register_exitproc>:
 800029c:	b470      	push	{r4, r5, r6}
 800029e:	4c18      	ldr	r4, [pc, #96]	; (8000300 <__register_exitproc+0x64>)
 80002a0:	6825      	ldr	r5, [r4, #0]
 80002a2:	f8d5 4148 	ldr.w	r4, [r5, #328]	; 0x148
 80002a6:	b31c      	cbz	r4, 80002f0 <__register_exitproc+0x54>
 80002a8:	6865      	ldr	r5, [r4, #4]
 80002aa:	2d1f      	cmp	r5, #31
 80002ac:	dc25      	bgt.n	80002fa <__register_exitproc+0x5e>
 80002ae:	b938      	cbnz	r0, 80002c0 <__register_exitproc+0x24>
 80002b0:	1cab      	adds	r3, r5, #2
 80002b2:	3501      	adds	r5, #1
 80002b4:	6065      	str	r5, [r4, #4]
 80002b6:	f844 1023 	str.w	r1, [r4, r3, lsl #2]
 80002ba:	2000      	movs	r0, #0
 80002bc:	bc70      	pop	{r4, r5, r6}
 80002be:	4770      	bx	lr
 80002c0:	eb04 0c85 	add.w	ip, r4, r5, lsl #2
 80002c4:	2802      	cmp	r0, #2
 80002c6:	f8cc 2088 	str.w	r2, [ip, #136]	; 0x88
 80002ca:	f8d4 6188 	ldr.w	r6, [r4, #392]	; 0x188
 80002ce:	f04f 0201 	mov.w	r2, #1
 80002d2:	fa02 f205 	lsl.w	r2, r2, r5
 80002d6:	ea46 0602 	orr.w	r6, r6, r2
 80002da:	f8c4 6188 	str.w	r6, [r4, #392]	; 0x188
 80002de:	f8cc 3108 	str.w	r3, [ip, #264]	; 0x108
 80002e2:	d1e5      	bne.n	80002b0 <__register_exitproc+0x14>
 80002e4:	f8d4 318c 	ldr.w	r3, [r4, #396]	; 0x18c
 80002e8:	4313      	orrs	r3, r2
 80002ea:	f8c4 318c 	str.w	r3, [r4, #396]	; 0x18c
 80002ee:	e7df      	b.n	80002b0 <__register_exitproc+0x14>
 80002f0:	f505 74a6 	add.w	r4, r5, #332	; 0x14c
 80002f4:	f8c5 4148 	str.w	r4, [r5, #328]	; 0x148
 80002f8:	e7d6      	b.n	80002a8 <__register_exitproc+0xc>
 80002fa:	f04f 30ff 	mov.w	r0, #4294967295	; 0xffffffff
 80002fe:	e7dd      	b.n	80002bc <__register_exitproc+0x20>
 8000300:	080003dc 	.word	0x080003dc

08000304 <main>:
 8000304:	2000      	movs	r0, #0
 8000306:	4770      	bx	lr

08000308 <SystemInit>:
 8000308:	4910      	ldr	r1, [pc, #64]	; (800034c <SystemInit+0x44>)
 800030a:	4b11      	ldr	r3, [pc, #68]	; (8000350 <SystemInit+0x48>)
 800030c:	f8d1 2088 	ldr.w	r2, [r1, #136]	; 0x88
 8000310:	f442 0270 	orr.w	r2, r2, #15728640	; 0xf00000
 8000314:	b410      	push	{r4}
 8000316:	f8c1 2088 	str.w	r2, [r1, #136]	; 0x88
 800031a:	681a      	ldr	r2, [r3, #0]
 800031c:	4c0d      	ldr	r4, [pc, #52]	; (8000354 <SystemInit+0x4c>)
 800031e:	2000      	movs	r0, #0
 8000320:	f042 0201 	orr.w	r2, r2, #1
 8000324:	601a      	str	r2, [r3, #0]
 8000326:	6098      	str	r0, [r3, #8]
 8000328:	681a      	ldr	r2, [r3, #0]
 800032a:	f022 7284 	bic.w	r2, r2, #17301504	; 0x1080000
 800032e:	f422 3280 	bic.w	r2, r2, #65536	; 0x10000
 8000332:	601a      	str	r2, [r3, #0]
 8000334:	605c      	str	r4, [r3, #4]
 8000336:	681a      	ldr	r2, [r3, #0]
 8000338:	f04f 6400 	mov.w	r4, #134217728	; 0x8000000
 800033c:	f422 2280 	bic.w	r2, r2, #262144	; 0x40000
 8000340:	601a      	str	r2, [r3, #0]
 8000342:	60d8      	str	r0, [r3, #12]
 8000344:	608c      	str	r4, [r1, #8]
 8000346:	f85d 4b04 	ldr.w	r4, [sp], #4
 800034a:	4770      	bx	lr
 800034c:	e000ed00 	.word	0xe000ed00
 8000350:	40023800 	.word	0x40023800
 8000354:	24003010 	.word	0x24003010

08000358 <TIM3_IRQHandler>:
 8000358:	4770      	bx	lr
 800035a:	bf00      	nop

0800035c <Reset_Handler>:
 800035c:	f8df d034 	ldr.w	sp, [pc, #52]	; 8000394 <LoopFillZerobss+0x14>
 8000360:	2100      	movs	r1, #0
 8000362:	e003      	b.n	800036c <LoopCopyDataInit>

08000364 <CopyDataInit>:
 8000364:	4b0c      	ldr	r3, [pc, #48]	; (8000398 <LoopFillZerobss+0x18>)
 8000366:	585b      	ldr	r3, [r3, r1]
 8000368:	5043      	str	r3, [r0, r1]
 800036a:	3104      	adds	r1, #4

0800036c <LoopCopyDataInit>:
 800036c:	480b      	ldr	r0, [pc, #44]	; (800039c <LoopFillZerobss+0x1c>)
 800036e:	4b0c      	ldr	r3, [pc, #48]	; (80003a0 <LoopFillZerobss+0x20>)
 8000370:	1842      	adds	r2, r0, r1
 8000372:	429a      	cmp	r2, r3
 8000374:	d3f6      	bcc.n	8000364 <CopyDataInit>
 8000376:	4a0b      	ldr	r2, [pc, #44]	; (80003a4 <LoopFillZerobss+0x24>)
 8000378:	e002      	b.n	8000380 <LoopFillZerobss>

0800037a <FillZerobss>:
 800037a:	2300      	movs	r3, #0
 800037c:	f842 3b04 	str.w	r3, [r2], #4

08000380 <LoopFillZerobss>:
 8000380:	4b09      	ldr	r3, [pc, #36]	; (80003a8 <LoopFillZerobss+0x28>)
 8000382:	429a      	cmp	r2, r3
 8000384:	d3f9      	bcc.n	800037a <FillZerobss>
 8000386:	f7ff ffbf 	bl	8000308 <SystemInit>
 800038a:	f7ff ff63 	bl	8000254 <__libc_init_array>
 800038e:	f7ff ffb9 	bl	8000304 <main>
 8000392:	4770      	bx	lr
 8000394:	20010000 	.word	0x20010000
 8000398:	080003ec 	.word	0x080003ec
 800039c:	20000000 	.word	0x20000000
 80003a0:	20000430 	.word	0x20000430
 80003a4:	20000430 	.word	0x20000430
 80003a8:	2000044c 	.word	0x2000044c

080003ac <ADC_IRQHandler>:
 80003ac:	e7fe      	b.n	80003ac <ADC_IRQHandler>
	...

080003b0 <register_fini>:
 80003b0:	4b02      	ldr	r3, [pc, #8]	; (80003bc <register_fini+0xc>)
 80003b2:	b113      	cbz	r3, 80003ba <register_fini+0xa>
 80003b4:	4802      	ldr	r0, [pc, #8]	; (80003c0 <register_fini+0x10>)
 80003b6:	f7ff bf31 	b.w	800021c <atexit>
 80003ba:	4770      	bx	lr
 80003bc:	00000000 	.word	0x00000000
 80003c0:	08000229 	.word	0x08000229

080003c4 <_init>:
 80003c4:	b5f8      	push	{r3, r4, r5, r6, r7, lr}
 80003c6:	bf00      	nop
 80003c8:	bcf8      	pop	{r3, r4, r5, r6, r7}
 80003ca:	bc08      	pop	{r3}
 80003cc:	469e      	mov	lr, r3
 80003ce:	4770      	bx	lr

080003d0 <_fini>:
 80003d0:	b5f8      	push	{r3, r4, r5, r6, r7, lr}
 80003d2:	bf00      	nop
 80003d4:	bcf8      	pop	{r3, r4, r5, r6, r7}
 80003d6:	bc08      	pop	{r3}
 80003d8:	469e      	mov	lr, r3
 80003da:	4770      	bx	lr
