Archive member included to satisfy reference by file (symbol)

/usr/lib/gcc/arm-none-eabi/10.3.1/../../../arm-none-eabi/lib/thumb/v7e-m+fp/hard/libg.a(lib_a-atexit.o)
                              /usr/lib/gcc/arm-none-eabi/10.3.1/../../../arm-none-eabi/lib/thumb/v7e-m+fp/hard/crt0.o (atexit)
/usr/lib/gcc/arm-none-eabi/10.3.1/../../../arm-none-eabi/lib/thumb/v7e-m+fp/hard/libg.a(lib_a-exit.o)
                              /usr/lib/gcc/arm-none-eabi/10.3.1/../../../arm-none-eabi/lib/thumb/v7e-m+fp/hard/crt0.o (exit)
/usr/lib/gcc/arm-none-eabi/10.3.1/../../../arm-none-eabi/lib/thumb/v7e-m+fp/hard/libg.a(lib_a-fini.o)
                              /usr/lib/gcc/arm-none-eabi/10.3.1/../../../arm-none-eabi/lib/thumb/v7e-m+fp/hard/crt0.o (__libc_fini_array)
/usr/lib/gcc/arm-none-eabi/10.3.1/../../../arm-none-eabi/lib/thumb/v7e-m+fp/hard/libg.a(lib_a-impure.o)
                              /usr/lib/gcc/arm-none-eabi/10.3.1/../../../arm-none-eabi/lib/thumb/v7e-m+fp/hard/libg.a(lib_a-exit.o) (_global_impure_ptr)
/usr/lib/gcc/arm-none-eabi/10.3.1/../../../arm-none-eabi/lib/thumb/v7e-m+fp/hard/libg.a(lib_a-init.o)
                              /usr/lib/gcc/arm-none-eabi/10.3.1/../../../arm-none-eabi/lib/thumb/v7e-m+fp/hard/crt0.o (__libc_init_array)
/usr/lib/gcc/arm-none-eabi/10.3.1/../../../arm-none-eabi/lib/thumb/v7e-m+fp/hard/libg.a(lib_a-memset.o)
                              /usr/lib/gcc/arm-none-eabi/10.3.1/../../../arm-none-eabi/lib/thumb/v7e-m+fp/hard/crt0.o (memset)
/usr/lib/gcc/arm-none-eabi/10.3.1/../../../arm-none-eabi/lib/thumb/v7e-m+fp/hard/libg.a(lib_a-__atexit.o)
                              /usr/lib/gcc/arm-none-eabi/10.3.1/../../../arm-none-eabi/lib/thumb/v7e-m+fp/hard/libg.a(lib_a-atexit.o) (__register_exitproc)
/usr/lib/gcc/arm-none-eabi/10.3.1/../../../arm-none-eabi/lib/thumb/v7e-m+fp/hard/libg.a(lib_a-__call_atexit.o)
                              /usr/lib/gcc/arm-none-eabi/10.3.1/../../../arm-none-eabi/lib/thumb/v7e-m+fp/hard/libg.a(lib_a-exit.o) (__call_exitprocs)

Discarded input sections

 .text          0x0000000000000000        0x0 /usr/lib/gcc/arm-none-eabi/10.3.1/thumb/v7e-m+fp/hard/crti.o
 .data          0x0000000000000000        0x0 /usr/lib/gcc/arm-none-eabi/10.3.1/thumb/v7e-m+fp/hard/crti.o
 .bss           0x0000000000000000        0x0 /usr/lib/gcc/arm-none-eabi/10.3.1/thumb/v7e-m+fp/hard/crti.o
 .data          0x0000000000000000        0x4 /usr/lib/gcc/arm-none-eabi/10.3.1/thumb/v7e-m+fp/hard/crtbegin.o
 .rodata        0x0000000000000000       0x24 /usr/lib/gcc/arm-none-eabi/10.3.1/thumb/v7e-m+fp/hard/crtbegin.o
 .text          0x0000000000000000       0x70 /usr/lib/gcc/arm-none-eabi/10.3.1/../../../arm-none-eabi/lib/thumb/v7e-m+fp/hard/crt0.o
 .data          0x0000000000000000        0x0 /usr/lib/gcc/arm-none-eabi/10.3.1/../../../arm-none-eabi/lib/thumb/v7e-m+fp/hard/crt0.o
 .bss           0x0000000000000000        0x0 /usr/lib/gcc/arm-none-eabi/10.3.1/../../../arm-none-eabi/lib/thumb/v7e-m+fp/hard/crt0.o
 .ARM.extab     0x0000000000000000        0x0 /usr/lib/gcc/arm-none-eabi/10.3.1/../../../arm-none-eabi/lib/thumb/v7e-m+fp/hard/crt0.o
 .ARM.exidx     0x0000000000000000       0x10 /usr/lib/gcc/arm-none-eabi/10.3.1/../../../arm-none-eabi/lib/thumb/v7e-m+fp/hard/crt0.o
 .debug_line    0x0000000000000000       0x87 /usr/lib/gcc/arm-none-eabi/10.3.1/../../../arm-none-eabi/lib/thumb/v7e-m+fp/hard/crt0.o
 .debug_info    0x0000000000000000       0x26 /usr/lib/gcc/arm-none-eabi/10.3.1/../../../arm-none-eabi/lib/thumb/v7e-m+fp/hard/crt0.o
 .debug_abbrev  0x0000000000000000       0x14 /usr/lib/gcc/arm-none-eabi/10.3.1/../../../arm-none-eabi/lib/thumb/v7e-m+fp/hard/crt0.o
 .debug_aranges
                0x0000000000000000       0x20 /usr/lib/gcc/arm-none-eabi/10.3.1/../../../arm-none-eabi/lib/thumb/v7e-m+fp/hard/crt0.o
 .debug_str     0x0000000000000000       0x98 /usr/lib/gcc/arm-none-eabi/10.3.1/../../../arm-none-eabi/lib/thumb/v7e-m+fp/hard/crt0.o
 .ARM.attributes
                0x0000000000000000       0x1c /usr/lib/gcc/arm-none-eabi/10.3.1/../../../arm-none-eabi/lib/thumb/v7e-m+fp/hard/crt0.o
 .group         0x0000000000000000        0xc /tmp/cc9QDufE.o
 .group         0x0000000000000000        0xc /tmp/cc9QDufE.o
 .group         0x0000000000000000        0xc /tmp/cc9QDufE.o
 .group         0x0000000000000000        0xc /tmp/cc9QDufE.o
 .group         0x0000000000000000        0xc /tmp/cc9QDufE.o
 .group         0x0000000000000000        0xc /tmp/cc9QDufE.o
 .group         0x0000000000000000        0xc /tmp/cc9QDufE.o
 .text          0x0000000000000000        0x0 /tmp/cc9QDufE.o
 .data          0x0000000000000000        0x0 /tmp/cc9QDufE.o
 .bss           0x0000000000000000        0x0 /tmp/cc9QDufE.o
 .group         0x0000000000000000        0xc /tmp/ccn3AwlW.o
 .group         0x0000000000000000        0xc /tmp/ccn3AwlW.o
 .group         0x0000000000000000        0xc /tmp/ccn3AwlW.o
 .group         0x0000000000000000        0xc /tmp/ccn3AwlW.o
 .group         0x0000000000000000        0xc /tmp/ccn3AwlW.o
 .group         0x0000000000000000        0xc /tmp/ccn3AwlW.o
 .group         0x0000000000000000        0xc /tmp/ccn3AwlW.o
 .text          0x0000000000000000        0x0 /tmp/ccn3AwlW.o
 .data          0x0000000000000000        0x0 /tmp/ccn3AwlW.o
 .bss           0x0000000000000000        0x0 /tmp/ccn3AwlW.o
 .rodata.APBPrescTable
                0x0000000000000000        0x8 /tmp/ccn3AwlW.o
 .debug_macro   0x0000000000000000      0xa72 /tmp/ccn3AwlW.o
 .debug_macro   0x0000000000000000       0x64 /tmp/ccn3AwlW.o
 .debug_macro   0x0000000000000000      0x34e /tmp/ccn3AwlW.o
 .debug_macro   0x0000000000000000       0x35 /tmp/ccn3AwlW.o
 .debug_macro   0x0000000000000000       0x50 /tmp/ccn3AwlW.o
 .debug_macro   0x0000000000000000      0xe66 /tmp/ccn3AwlW.o
 .debug_macro   0x0000000000000000     0x799d /tmp/ccn3AwlW.o
 .group         0x0000000000000000        0xc /tmp/cctCBNkt.o
 .group         0x0000000000000000        0xc /tmp/cctCBNkt.o
 .group         0x0000000000000000        0xc /tmp/cctCBNkt.o
 .group         0x0000000000000000        0xc /tmp/cctCBNkt.o
 .group         0x0000000000000000        0xc /tmp/cctCBNkt.o
 .group         0x0000000000000000        0xc /tmp/cctCBNkt.o
 .group         0x0000000000000000        0xc /tmp/cctCBNkt.o
 .text          0x0000000000000000        0x0 /tmp/cctCBNkt.o
 .data          0x0000000000000000        0x0 /tmp/cctCBNkt.o
 .bss           0x0000000000000000        0x0 /tmp/cctCBNkt.o
 .text.NVIC_EnableIRQ
                0x0000000000000000       0x34 /tmp/cctCBNkt.o
 .text.timerInit
                0x0000000000000000       0x38 /tmp/cctCBNkt.o
 .text.delay_ms
                0x0000000000000000       0x30 /tmp/cctCBNkt.o
 .debug_macro   0x0000000000000000      0xa72 /tmp/cctCBNkt.o
 .debug_macro   0x0000000000000000       0x64 /tmp/cctCBNkt.o
 .debug_macro   0x0000000000000000      0x34e /tmp/cctCBNkt.o
 .debug_macro   0x0000000000000000       0x35 /tmp/cctCBNkt.o
 .debug_macro   0x0000000000000000       0x50 /tmp/cctCBNkt.o
 .debug_macro   0x0000000000000000      0xe66 /tmp/cctCBNkt.o
 .debug_macro   0x0000000000000000     0x799d /tmp/cctCBNkt.o
 .group         0x0000000000000000        0xc /tmp/cc1NF0lS.o
 .group         0x0000000000000000        0xc /tmp/cc1NF0lS.o
 .group         0x0000000000000000        0xc /tmp/cc1NF0lS.o
 .group         0x0000000000000000        0xc /tmp/cc1NF0lS.o
 .group         0x0000000000000000        0xc /tmp/cc1NF0lS.o
 .group         0x0000000000000000        0xc /tmp/cc1NF0lS.o
 .group         0x0000000000000000        0xc /tmp/cc1NF0lS.o
 .text          0x0000000000000000        0x0 /tmp/cc1NF0lS.o
 .data          0x0000000000000000        0x0 /tmp/cc1NF0lS.o
 .bss           0x0000000000000000        0x0 /tmp/cc1NF0lS.o
 .text.RCC_DeInit
                0x0000000000000000       0x18 /tmp/cc1NF0lS.o
 .debug_macro   0x0000000000000000      0xa72 /tmp/cc1NF0lS.o
 .debug_macro   0x0000000000000000       0x64 /tmp/cc1NF0lS.o
 .debug_macro   0x0000000000000000      0x34e /tmp/cc1NF0lS.o
 .debug_macro   0x0000000000000000       0x35 /tmp/cc1NF0lS.o
 .debug_macro   0x0000000000000000       0x50 /tmp/cc1NF0lS.o
 .debug_macro   0x0000000000000000      0xe66 /tmp/cc1NF0lS.o
 .debug_macro   0x0000000000000000     0x799d /tmp/cc1NF0lS.o
 .group         0x0000000000000000        0xc /tmp/ccZmCY4Q.o
 .group         0x0000000000000000        0xc /tmp/ccZmCY4Q.o
 .group         0x0000000000000000        0xc /tmp/ccZmCY4Q.o
 .group         0x0000000000000000        0xc /tmp/ccZmCY4Q.o
 .group         0x0000000000000000        0xc /tmp/ccZmCY4Q.o
 .group         0x0000000000000000        0xc /tmp/ccZmCY4Q.o
 .group         0x0000000000000000        0xc /tmp/ccZmCY4Q.o
 .text          0x0000000000000000        0x0 /tmp/ccZmCY4Q.o
 .data          0x0000000000000000        0x0 /tmp/ccZmCY4Q.o
 .bss           0x0000000000000000        0x0 /tmp/ccZmCY4Q.o
 .debug_macro   0x0000000000000000      0xa72 /tmp/ccZmCY4Q.o
 .debug_macro   0x0000000000000000       0x64 /tmp/ccZmCY4Q.o
 .debug_macro   0x0000000000000000      0x34e /tmp/ccZmCY4Q.o
 .debug_macro   0x0000000000000000       0x35 /tmp/ccZmCY4Q.o
 .debug_macro   0x0000000000000000       0x50 /tmp/ccZmCY4Q.o
 .debug_macro   0x0000000000000000      0xe66 /tmp/ccZmCY4Q.o
 .debug_macro   0x0000000000000000     0x799d /tmp/ccZmCY4Q.o
 .text          0x0000000000000000       0x14 /tmp/cc4DqqrT.o
 .data          0x0000000000000000        0x0 /tmp/cc4DqqrT.o
 .bss           0x0000000000000000        0x0 /tmp/cc4DqqrT.o
 .data          0x0000000000000000        0x0 /usr/lib/gcc/arm-none-eabi/10.3.1/../../../arm-none-eabi/lib/thumb/v7e-m+fp/hard/libg.a(lib_a-atexit.o)
 .bss           0x0000000000000000        0x0 /usr/lib/gcc/arm-none-eabi/10.3.1/../../../arm-none-eabi/lib/thumb/v7e-m+fp/hard/libg.a(lib_a-atexit.o)
 .text          0x0000000000000000       0x20 /usr/lib/gcc/arm-none-eabi/10.3.1/../../../arm-none-eabi/lib/thumb/v7e-m+fp/hard/libg.a(lib_a-exit.o)
 .data          0x0000000000000000        0x0 /usr/lib/gcc/arm-none-eabi/10.3.1/../../../arm-none-eabi/lib/thumb/v7e-m+fp/hard/libg.a(lib_a-exit.o)
 .bss           0x0000000000000000        0x0 /usr/lib/gcc/arm-none-eabi/10.3.1/../../../arm-none-eabi/lib/thumb/v7e-m+fp/hard/libg.a(lib_a-exit.o)
 .debug_info    0x0000000000000000      0x969 /usr/lib/gcc/arm-none-eabi/10.3.1/../../../arm-none-eabi/lib/thumb/v7e-m+fp/hard/libg.a(lib_a-exit.o)
 .debug_abbrev  0x0000000000000000      0x20c /usr/lib/gcc/arm-none-eabi/10.3.1/../../../arm-none-eabi/lib/thumb/v7e-m+fp/hard/libg.a(lib_a-exit.o)
 .debug_loc     0x0000000000000000       0x22 /usr/lib/gcc/arm-none-eabi/10.3.1/../../../arm-none-eabi/lib/thumb/v7e-m+fp/hard/libg.a(lib_a-exit.o)
 .debug_aranges
                0x0000000000000000       0x20 /usr/lib/gcc/arm-none-eabi/10.3.1/../../../arm-none-eabi/lib/thumb/v7e-m+fp/hard/libg.a(lib_a-exit.o)
 .debug_line    0x0000000000000000      0x179 /usr/lib/gcc/arm-none-eabi/10.3.1/../../../arm-none-eabi/lib/thumb/v7e-m+fp/hard/libg.a(lib_a-exit.o)
 .debug_str     0x0000000000000000      0x58b /usr/lib/gcc/arm-none-eabi/10.3.1/../../../arm-none-eabi/lib/thumb/v7e-m+fp/hard/libg.a(lib_a-exit.o)
 .comment       0x0000000000000000       0x34 /usr/lib/gcc/arm-none-eabi/10.3.1/../../../arm-none-eabi/lib/thumb/v7e-m+fp/hard/libg.a(lib_a-exit.o)
 .debug_frame   0x0000000000000000       0x28 /usr/lib/gcc/arm-none-eabi/10.3.1/../../../arm-none-eabi/lib/thumb/v7e-m+fp/hard/libg.a(lib_a-exit.o)
 .ARM.attributes
                0x0000000000000000       0x34 /usr/lib/gcc/arm-none-eabi/10.3.1/../../../arm-none-eabi/lib/thumb/v7e-m+fp/hard/libg.a(lib_a-exit.o)
 .data          0x0000000000000000        0x0 /usr/lib/gcc/arm-none-eabi/10.3.1/../../../arm-none-eabi/lib/thumb/v7e-m+fp/hard/libg.a(lib_a-fini.o)
 .bss           0x0000000000000000        0x0 /usr/lib/gcc/arm-none-eabi/10.3.1/../../../arm-none-eabi/lib/thumb/v7e-m+fp/hard/libg.a(lib_a-fini.o)
 .text          0x0000000000000000        0x0 /usr/lib/gcc/arm-none-eabi/10.3.1/../../../arm-none-eabi/lib/thumb/v7e-m+fp/hard/libg.a(lib_a-impure.o)
 .bss           0x0000000000000000        0x0 /usr/lib/gcc/arm-none-eabi/10.3.1/../../../arm-none-eabi/lib/thumb/v7e-m+fp/hard/libg.a(lib_a-impure.o)
 .data          0x0000000000000000        0x0 /usr/lib/gcc/arm-none-eabi/10.3.1/../../../arm-none-eabi/lib/thumb/v7e-m+fp/hard/libg.a(lib_a-init.o)
 .bss           0x0000000000000000        0x0 /usr/lib/gcc/arm-none-eabi/10.3.1/../../../arm-none-eabi/lib/thumb/v7e-m+fp/hard/libg.a(lib_a-init.o)
 .text          0x0000000000000000       0xa4 /usr/lib/gcc/arm-none-eabi/10.3.1/../../../arm-none-eabi/lib/thumb/v7e-m+fp/hard/libg.a(lib_a-memset.o)
 .data          0x0000000000000000        0x0 /usr/lib/gcc/arm-none-eabi/10.3.1/../../../arm-none-eabi/lib/thumb/v7e-m+fp/hard/libg.a(lib_a-memset.o)
 .bss           0x0000000000000000        0x0 /usr/lib/gcc/arm-none-eabi/10.3.1/../../../arm-none-eabi/lib/thumb/v7e-m+fp/hard/libg.a(lib_a-memset.o)
 .debug_info    0x0000000000000000      0x137 /usr/lib/gcc/arm-none-eabi/10.3.1/../../../arm-none-eabi/lib/thumb/v7e-m+fp/hard/libg.a(lib_a-memset.o)
 .debug_abbrev  0x0000000000000000       0xb4 /usr/lib/gcc/arm-none-eabi/10.3.1/../../../arm-none-eabi/lib/thumb/v7e-m+fp/hard/libg.a(lib_a-memset.o)
 .debug_loc     0x0000000000000000      0x22c /usr/lib/gcc/arm-none-eabi/10.3.1/../../../arm-none-eabi/lib/thumb/v7e-m+fp/hard/libg.a(lib_a-memset.o)
 .debug_aranges
                0x0000000000000000       0x20 /usr/lib/gcc/arm-none-eabi/10.3.1/../../../arm-none-eabi/lib/thumb/v7e-m+fp/hard/libg.a(lib_a-memset.o)
 .debug_line    0x0000000000000000      0x1bf /usr/lib/gcc/arm-none-eabi/10.3.1/../../../arm-none-eabi/lib/thumb/v7e-m+fp/hard/libg.a(lib_a-memset.o)
 .debug_str     0x0000000000000000      0x1bb /usr/lib/gcc/arm-none-eabi/10.3.1/../../../arm-none-eabi/lib/thumb/v7e-m+fp/hard/libg.a(lib_a-memset.o)
 .comment       0x0000000000000000       0x34 /usr/lib/gcc/arm-none-eabi/10.3.1/../../../arm-none-eabi/lib/thumb/v7e-m+fp/hard/libg.a(lib_a-memset.o)
 .debug_frame   0x0000000000000000       0x2c /usr/lib/gcc/arm-none-eabi/10.3.1/../../../arm-none-eabi/lib/thumb/v7e-m+fp/hard/libg.a(lib_a-memset.o)
 .ARM.attributes
                0x0000000000000000       0x34 /usr/lib/gcc/arm-none-eabi/10.3.1/../../../arm-none-eabi/lib/thumb/v7e-m+fp/hard/libg.a(lib_a-memset.o)
 .data          0x0000000000000000        0x0 /usr/lib/gcc/arm-none-eabi/10.3.1/../../../arm-none-eabi/lib/thumb/v7e-m+fp/hard/libg.a(lib_a-__atexit.o)
 .bss           0x0000000000000000        0x0 /usr/lib/gcc/arm-none-eabi/10.3.1/../../../arm-none-eabi/lib/thumb/v7e-m+fp/hard/libg.a(lib_a-__atexit.o)
 .text          0x0000000000000000       0xb8 /usr/lib/gcc/arm-none-eabi/10.3.1/../../../arm-none-eabi/lib/thumb/v7e-m+fp/hard/libg.a(lib_a-__call_atexit.o)
 .data          0x0000000000000000        0x0 /usr/lib/gcc/arm-none-eabi/10.3.1/../../../arm-none-eabi/lib/thumb/v7e-m+fp/hard/libg.a(lib_a-__call_atexit.o)
 .bss           0x0000000000000000        0x0 /usr/lib/gcc/arm-none-eabi/10.3.1/../../../arm-none-eabi/lib/thumb/v7e-m+fp/hard/libg.a(lib_a-__call_atexit.o)
 .text          0x0000000000000000        0x0 /usr/lib/gcc/arm-none-eabi/10.3.1/thumb/v7e-m+fp/hard/crtend.o
 .data          0x0000000000000000        0x0 /usr/lib/gcc/arm-none-eabi/10.3.1/thumb/v7e-m+fp/hard/crtend.o
 .bss           0x0000000000000000        0x0 /usr/lib/gcc/arm-none-eabi/10.3.1/thumb/v7e-m+fp/hard/crtend.o
 .rodata        0x0000000000000000       0x24 /usr/lib/gcc/arm-none-eabi/10.3.1/thumb/v7e-m+fp/hard/crtend.o
 .eh_frame      0x0000000000000000        0x4 /usr/lib/gcc/arm-none-eabi/10.3.1/thumb/v7e-m+fp/hard/crtend.o
 .text          0x0000000000000000        0x0 /usr/lib/gcc/arm-none-eabi/10.3.1/thumb/v7e-m+fp/hard/crtn.o
 .data          0x0000000000000000        0x0 /usr/lib/gcc/arm-none-eabi/10.3.1/thumb/v7e-m+fp/hard/crtn.o
 .bss           0x0000000000000000        0x0 /usr/lib/gcc/arm-none-eabi/10.3.1/thumb/v7e-m+fp/hard/crtn.o

Memory Configuration

Name             Origin             Length             Attributes
RAM              0x0000000020000000 0x0000000000010000 xrw
FLASH            0x0000000008000000 0x0000000000040000 xr
*default*        0x0000000000000000 0xffffffffffffffff

Linker script and memory map

LOAD /usr/lib/gcc/arm-none-eabi/10.3.1/thumb/v7e-m+fp/hard/crti.o
LOAD /usr/lib/gcc/arm-none-eabi/10.3.1/thumb/v7e-m+fp/hard/crtbegin.o
LOAD /usr/lib/gcc/arm-none-eabi/10.3.1/../../../arm-none-eabi/lib/thumb/v7e-m+fp/hard/crt0.o
LOAD /tmp/cc9QDufE.o
LOAD /tmp/ccn3AwlW.o
LOAD /tmp/cctCBNkt.o
LOAD /tmp/cc1NF0lS.o
LOAD /tmp/ccZmCY4Q.o
LOAD /tmp/cc4DqqrT.o
START GROUP
LOAD /usr/lib/gcc/arm-none-eabi/10.3.1/thumb/v7e-m+fp/hard/libgcc.a
LOAD /usr/lib/gcc/arm-none-eabi/10.3.1/../../../arm-none-eabi/lib/thumb/v7e-m+fp/hard/libg.a
LOAD /usr/lib/gcc/arm-none-eabi/10.3.1/../../../arm-none-eabi/lib/thumb/v7e-m+fp/hard/libc.a
END GROUP
LOAD /usr/lib/gcc/arm-none-eabi/10.3.1/thumb/v7e-m+fp/hard/crtend.o
LOAD /usr/lib/gcc/arm-none-eabi/10.3.1/thumb/v7e-m+fp/hard/crtn.o
                0x0000000020010000                _estack = (ORIGIN (RAM) + LENGTH (RAM))
                0x0000000000000000                _Min_Heap_Size = 0x0
                0x0000000000004000                _Min_Stack_Size = 0x4000

.isr_vector     0x0000000008000000      0x194
                0x0000000008000000                . = ALIGN (0x4)
 *(.isr_vector)
 .isr_vector    0x0000000008000000      0x194 /tmp/cc4DqqrT.o
                0x0000000008000000                g_pfnVectors
                0x0000000008000194                . = ALIGN (0x4)

.text           0x0000000008000194      0x650
                0x0000000008000194                . = ALIGN (0x4)
 *(.text)
 .text          0x0000000008000194       0x88 /usr/lib/gcc/arm-none-eabi/10.3.1/thumb/v7e-m+fp/hard/crtbegin.o
 .text          0x000000000800021c        0xc /usr/lib/gcc/arm-none-eabi/10.3.1/../../../arm-none-eabi/lib/thumb/v7e-m+fp/hard/libg.a(lib_a-atexit.o)
                0x000000000800021c                atexit
 .text          0x0000000008000228       0x2c /usr/lib/gcc/arm-none-eabi/10.3.1/../../../arm-none-eabi/lib/thumb/v7e-m+fp/hard/libg.a(lib_a-fini.o)
                0x0000000008000228                __libc_fini_array
 .text          0x0000000008000254       0x48 /usr/lib/gcc/arm-none-eabi/10.3.1/../../../arm-none-eabi/lib/thumb/v7e-m+fp/hard/libg.a(lib_a-init.o)
                0x0000000008000254                __libc_init_array
 .text          0x000000000800029c       0x68 /usr/lib/gcc/arm-none-eabi/10.3.1/../../../arm-none-eabi/lib/thumb/v7e-m+fp/hard/libg.a(lib_a-__atexit.o)
                0x000000000800029c                __register_exitproc
 *(.text*)
 .text.main     0x0000000008000304       0x5c /tmp/cc9QDufE.o
                0x0000000008000304                main
 .text.SystemInit
                0x0000000008000360       0x6c /tmp/ccn3AwlW.o
                0x0000000008000360                SystemInit
 .text.SystemCoreClockUpdate
                0x00000000080003cc      0x100 /tmp/ccn3AwlW.o
                0x00000000080003cc                SystemCoreClockUpdate
 .text.NVIC_SetPriority
                0x00000000080004cc       0x54 /tmp/cctCBNkt.o
 .text.SysTick_Config
                0x0000000008000520       0x44 /tmp/cctCBNkt.o
 .text.SysTick_Init
                0x0000000008000564       0x28 /tmp/cctCBNkt.o
                0x0000000008000564                SysTick_Init
 .text.SysTick_Handler
                0x000000000800058c       0x1c /tmp/cctCBNkt.o
                0x000000000800058c                SysTick_Handler
 .text.TIM3_IRQHandler
                0x00000000080005a8        0xe /tmp/cctCBNkt.o
                0x00000000080005a8                TIM3_IRQHandler
 *fill*         0x00000000080005b6        0x2 
 .text.RCC_Init
                0x00000000080005b8      0x13c /tmp/cc1NF0lS.o
                0x00000000080005b8                RCC_Init
 .text.enablePeriphClock
                0x00000000080006f4       0x38 /tmp/cc1NF0lS.o
                0x00000000080006f4                enablePeriphClock
 .text.GPIO_Init
                0x000000000800072c       0x38 /tmp/ccZmCY4Q.o
                0x000000000800072c                GPIO_Init
 .text.Reset_Handler
                0x0000000008000764       0x50 /tmp/cc4DqqrT.o
                0x0000000008000764                Reset_Handler
 .text.Default_Handler
                0x00000000080007b4        0x2 /tmp/cc4DqqrT.o
                0x00000000080007b4                RTC_Alarm_IRQHandler
                0x00000000080007b4                EXTI2_IRQHandler
                0x00000000080007b4                DebugMon_Handler
                0x00000000080007b4                SPI4_IRQHandler
                0x00000000080007b4                TIM1_CC_IRQHandler
                0x00000000080007b4                DMA2_Stream5_IRQHandler
                0x00000000080007b4                HardFault_Handler
                0x00000000080007b4                DMA1_Stream5_IRQHandler
                0x00000000080007b4                PVD_IRQHandler
                0x00000000080007b4                SDIO_IRQHandler
                0x00000000080007b4                TAMP_STAMP_IRQHandler
                0x00000000080007b4                PendSV_Handler
                0x00000000080007b4                NMI_Handler
                0x00000000080007b4                EXTI3_IRQHandler
                0x00000000080007b4                TIM1_UP_TIM10_IRQHandler
                0x00000000080007b4                I2C3_ER_IRQHandler
                0x00000000080007b4                EXTI0_IRQHandler
                0x00000000080007b4                I2C2_EV_IRQHandler
                0x00000000080007b4                DMA1_Stream2_IRQHandler
                0x00000000080007b4                FPU_IRQHandler
                0x00000000080007b4                UsageFault_Handler
                0x00000000080007b4                DMA2_Stream2_IRQHandler
                0x00000000080007b4                SPI1_IRQHandler
                0x00000000080007b4                TIM1_BRK_TIM9_IRQHandler
                0x00000000080007b4                DMA2_Stream3_IRQHandler
                0x00000000080007b4                USART6_IRQHandler
                0x00000000080007b4                DMA2_Stream0_IRQHandler
                0x00000000080007b4                TIM4_IRQHandler
                0x00000000080007b4                I2C1_EV_IRQHandler
                0x00000000080007b4                DMA1_Stream6_IRQHandler
                0x00000000080007b4                DMA1_Stream1_IRQHandler
                0x00000000080007b4                RCC_IRQHandler
                0x00000000080007b4                Default_Handler
                0x00000000080007b4                EXTI15_10_IRQHandler
                0x00000000080007b4                ADC_IRQHandler
                0x00000000080007b4                DMA1_Stream7_IRQHandler
                0x00000000080007b4                TIM5_IRQHandler
                0x00000000080007b4                DMA2_Stream7_IRQHandler
                0x00000000080007b4                I2C3_EV_IRQHandler
                0x00000000080007b4                EXTI9_5_IRQHandler
                0x00000000080007b4                RTC_WKUP_IRQHandler
                0x00000000080007b4                SPI2_IRQHandler
                0x00000000080007b4                MemManage_Handler
                0x00000000080007b4                DMA1_Stream0_IRQHandler
                0x00000000080007b4                SVC_Handler
                0x00000000080007b4                EXTI4_IRQHandler
                0x00000000080007b4                WWDG_IRQHandler
                0x00000000080007b4                TIM2_IRQHandler
                0x00000000080007b4                OTG_FS_WKUP_IRQHandler
                0x00000000080007b4                TIM1_TRG_COM_TIM11_IRQHandler
                0x00000000080007b4                EXTI1_IRQHandler
                0x00000000080007b4                USART2_IRQHandler
                0x00000000080007b4                I2C2_ER_IRQHandler
                0x00000000080007b4                DMA2_Stream1_IRQHandler
                0x00000000080007b4                FLASH_IRQHandler
                0x00000000080007b4                DMA2_Stream4_IRQHandler
                0x00000000080007b4                BusFault_Handler
                0x00000000080007b4                USART1_IRQHandler
                0x00000000080007b4                OTG_FS_IRQHandler
                0x00000000080007b4                SPI3_IRQHandler
                0x00000000080007b4                DMA1_Stream4_IRQHandler
                0x00000000080007b4                I2C1_ER_IRQHandler
                0x00000000080007b4                DMA2_Stream6_IRQHandler
                0x00000000080007b4                DMA1_Stream3_IRQHandler
 *fill*         0x00000000080007b6        0x2 
 .text.startup  0x00000000080007b8       0x14 /usr/lib/gcc/arm-none-eabi/10.3.1/../../../arm-none-eabi/lib/thumb/v7e-m+fp/hard/libg.a(lib_a-__call_atexit.o)
 *(.glue_7)
 .glue_7        0x00000000080007cc        0x0 linker stubs
 *(.glue_7t)
 .glue_7t       0x00000000080007cc        0x0 linker stubs
 *(.eh_frame)
 .eh_frame      0x00000000080007cc        0x0 /usr/lib/gcc/arm-none-eabi/10.3.1/thumb/v7e-m+fp/hard/crtbegin.o
 *(.init)
 .init          0x00000000080007cc        0x4 /usr/lib/gcc/arm-none-eabi/10.3.1/thumb/v7e-m+fp/hard/crti.o
                0x00000000080007cc                _init
 .init          0x00000000080007d0        0x8 /usr/lib/gcc/arm-none-eabi/10.3.1/thumb/v7e-m+fp/hard/crtn.o
 *(.fini)
 .fini          0x00000000080007d8        0x4 /usr/lib/gcc/arm-none-eabi/10.3.1/thumb/v7e-m+fp/hard/crti.o
                0x00000000080007d8                _fini
 .fini          0x00000000080007dc        0x8 /usr/lib/gcc/arm-none-eabi/10.3.1/thumb/v7e-m+fp/hard/crtn.o
                0x00000000080007e4                . = ALIGN (0x4)
                0x00000000080007e4                _etext = .

.vfp11_veneer   0x00000000080007e4        0x0
 .vfp11_veneer  0x00000000080007e4        0x0 linker stubs

.v4_bx          0x00000000080007e4        0x0
 .v4_bx         0x00000000080007e4        0x0 linker stubs

.iplt           0x00000000080007e4        0x0
 .iplt          0x00000000080007e4        0x0 /usr/lib/gcc/arm-none-eabi/10.3.1/thumb/v7e-m+fp/hard/crtbegin.o

.rodata         0x00000000080007e4       0x14
                0x00000000080007e4                . = ALIGN (0x4)
 *(.rodata)
 .rodata        0x00000000080007e4        0x4 /usr/lib/gcc/arm-none-eabi/10.3.1/../../../arm-none-eabi/lib/thumb/v7e-m+fp/hard/libg.a(lib_a-impure.o)
                0x00000000080007e4                _global_impure_ptr
 *(.rodata*)
 .rodata.AHBPrescTable
                0x00000000080007e8       0x10 /tmp/ccn3AwlW.o
                0x00000000080007e8                AHBPrescTable
                0x00000000080007f8                . = ALIGN (0x4)

.rel.dyn        0x00000000080007f8        0x0
 .rel.iplt      0x00000000080007f8        0x0 /usr/lib/gcc/arm-none-eabi/10.3.1/thumb/v7e-m+fp/hard/crtbegin.o

.ARM.extab
 *(.ARM.extab* .gnu.linkonce.armextab.*)

.ARM            0x00000000080007f8        0x0
                0x00000000080007f8                __exidx_start = .
 *(.ARM.exidx*)
                0x00000000080007f8                __exidx_end = .

.preinit_array  0x00000000080007f8        0x0
                0x00000000080007f8                PROVIDE (__preinit_array_start = .)
 *(.preinit_array*)
                0x00000000080007f8                PROVIDE (__preinit_array_end = .)

.init_array     0x00000000080007f8        0x8
                0x00000000080007f8                PROVIDE (__init_array_start = .)
 *(SORT_BY_NAME(.init_array.*))
 .init_array.00000
                0x00000000080007f8        0x4 /usr/lib/gcc/arm-none-eabi/10.3.1/../../../arm-none-eabi/lib/thumb/v7e-m+fp/hard/libg.a(lib_a-__call_atexit.o)
 *(.init_array*)
 .init_array    0x00000000080007fc        0x4 /usr/lib/gcc/arm-none-eabi/10.3.1/thumb/v7e-m+fp/hard/crtbegin.o
                0x0000000008000800                PROVIDE (__init_array_end = .)

.fini_array     0x0000000008000800        0x4
                0x0000000008000800                PROVIDE (__fini_array_start = .)
 *(SORT_BY_NAME(.fini_array.*))
 *(.fini_array*)
 .fini_array    0x0000000008000800        0x4 /usr/lib/gcc/arm-none-eabi/10.3.1/thumb/v7e-m+fp/hard/crtbegin.o
                0x0000000008000804                PROVIDE (__fini_array_end = .)
                0x0000000008000804                _sidata = LOADADDR (.data)

.data           0x0000000020000000      0x434 load address 0x0000000008000804
                0x0000000020000000                . = ALIGN (0x4)
                0x0000000020000000                _sdata = .
 *(.data)
 .data          0x0000000020000000      0x430 /usr/lib/gcc/arm-none-eabi/10.3.1/../../../arm-none-eabi/lib/thumb/v7e-m+fp/hard/libg.a(lib_a-impure.o)
                0x0000000020000000                _impure_ptr
 *(.data*)
 .data.SystemCoreClock
                0x0000000020000430        0x4 /tmp/ccn3AwlW.o
                0x0000000020000430                SystemCoreClock
                0x0000000020000434                . = ALIGN (0x4)
                0x0000000020000434                _edata = .

.tm_clone_table
                0x0000000020000434        0x0 load address 0x0000000008000c38
 .tm_clone_table
                0x0000000020000434        0x0 /usr/lib/gcc/arm-none-eabi/10.3.1/thumb/v7e-m+fp/hard/crtbegin.o
 .tm_clone_table
                0x0000000020000434        0x0 /usr/lib/gcc/arm-none-eabi/10.3.1/thumb/v7e-m+fp/hard/crtend.o

.igot.plt       0x0000000020000434        0x0 load address 0x0000000008000c38
 .igot.plt      0x0000000020000434        0x0 /usr/lib/gcc/arm-none-eabi/10.3.1/thumb/v7e-m+fp/hard/crtbegin.o
                0x0000000020000434                . = ALIGN (0x4)

.bss            0x0000000020000434       0x20 load address 0x0000000008000c38
                0x0000000020000434                _sbss = .
                0x0000000020000434                __bss_start__ = _sbss
 *(.bss)
 .bss           0x0000000020000434       0x1c /usr/lib/gcc/arm-none-eabi/10.3.1/thumb/v7e-m+fp/hard/crtbegin.o
 *(.bss*)
 .bss.ticks     0x0000000020000450        0x4 /tmp/cctCBNkt.o
                0x0000000020000450                ticks
 *(COMMON)
                0x0000000020000454                . = ALIGN (0x4)
                0x0000000020000454                _ebss = .
                0x0000000020000454                __bss_end__ = _ebss

._user_heap_stack
                0x0000000020000454     0x4004 load address 0x0000000008000c38
                0x0000000020000458                . = ALIGN (0x8)
 *fill*         0x0000000020000454        0x4 
                [!provide]                        PROVIDE (end = .)
                [!provide]                        PROVIDE (_end = .)
                0x0000000020000458                . = (. + _Min_Heap_Size)
                0x0000000020004458                . = (. + _Min_Stack_Size)
 *fill*         0x0000000020000458     0x4000 
                0x0000000020004458                . = ALIGN (0x8)

/DISCARD/
 libc.a(*)
 libm.a(*)
 libgcc.a(*)

.ARM.attributes
                0x0000000000000000       0x30
 *(.ARM.attributes)
 .ARM.attributes
                0x0000000000000000       0x1e /usr/lib/gcc/arm-none-eabi/10.3.1/thumb/v7e-m+fp/hard/crti.o
 .ARM.attributes
                0x000000000000001e       0x34 /usr/lib/gcc/arm-none-eabi/10.3.1/thumb/v7e-m+fp/hard/crtbegin.o
 .ARM.attributes
                0x0000000000000052       0x34 /tmp/cc9QDufE.o
 .ARM.attributes
                0x0000000000000086       0x34 /tmp/ccn3AwlW.o
 .ARM.attributes
                0x00000000000000ba       0x34 /tmp/cctCBNkt.o
 .ARM.attributes
                0x00000000000000ee       0x34 /tmp/cc1NF0lS.o
 .ARM.attributes
                0x0000000000000122       0x34 /tmp/ccZmCY4Q.o
 .ARM.attributes
                0x0000000000000156       0x21 /tmp/cc4DqqrT.o
 .ARM.attributes
                0x0000000000000177       0x34 /usr/lib/gcc/arm-none-eabi/10.3.1/../../../arm-none-eabi/lib/thumb/v7e-m+fp/hard/libg.a(lib_a-atexit.o)
 .ARM.attributes
                0x00000000000001ab       0x34 /usr/lib/gcc/arm-none-eabi/10.3.1/../../../arm-none-eabi/lib/thumb/v7e-m+fp/hard/libg.a(lib_a-fini.o)
 .ARM.attributes
                0x00000000000001df       0x32 /usr/lib/gcc/arm-none-eabi/10.3.1/../../../arm-none-eabi/lib/thumb/v7e-m+fp/hard/libg.a(lib_a-impure.o)
 .ARM.attributes
                0x0000000000000211       0x34 /usr/lib/gcc/arm-none-eabi/10.3.1/../../../arm-none-eabi/lib/thumb/v7e-m+fp/hard/libg.a(lib_a-init.o)
 .ARM.attributes
                0x0000000000000245       0x34 /usr/lib/gcc/arm-none-eabi/10.3.1/../../../arm-none-eabi/lib/thumb/v7e-m+fp/hard/libg.a(lib_a-__atexit.o)
 .ARM.attributes
                0x0000000000000279       0x34 /usr/lib/gcc/arm-none-eabi/10.3.1/../../../arm-none-eabi/lib/thumb/v7e-m+fp/hard/libg.a(lib_a-__call_atexit.o)
 .ARM.attributes
                0x00000000000002ad       0x32 /usr/lib/gcc/arm-none-eabi/10.3.1/thumb/v7e-m+fp/hard/crtend.o
 .ARM.attributes
                0x00000000000002df       0x1e /usr/lib/gcc/arm-none-eabi/10.3.1/thumb/v7e-m+fp/hard/crtn.o
OUTPUT(build/main.elf elf32-littlearm)
LOAD linker stubs
LOAD /usr/lib/gcc/arm-none-eabi/10.3.1/../../../arm-none-eabi/lib/thumb/v7e-m+fp/hard/libc.a
LOAD /usr/lib/gcc/arm-none-eabi/10.3.1/../../../arm-none-eabi/lib/thumb/v7e-m+fp/hard/libm.a
LOAD /usr/lib/gcc/arm-none-eabi/10.3.1/thumb/v7e-m+fp/hard/libgcc.a

.comment        0x0000000000000000       0x33
 .comment       0x0000000000000000       0x33 /usr/lib/gcc/arm-none-eabi/10.3.1/thumb/v7e-m+fp/hard/crtbegin.o
                                         0x34 (size before relaxing)
 .comment       0x0000000000000033       0x34 /tmp/cc9QDufE.o
 .comment       0x0000000000000033       0x34 /tmp/ccn3AwlW.o
 .comment       0x0000000000000033       0x34 /tmp/cctCBNkt.o
 .comment       0x0000000000000033       0x34 /tmp/cc1NF0lS.o
 .comment       0x0000000000000033       0x34 /tmp/ccZmCY4Q.o
 .comment       0x0000000000000033       0x34 /usr/lib/gcc/arm-none-eabi/10.3.1/../../../arm-none-eabi/lib/thumb/v7e-m+fp/hard/libg.a(lib_a-atexit.o)
 .comment       0x0000000000000033       0x34 /usr/lib/gcc/arm-none-eabi/10.3.1/../../../arm-none-eabi/lib/thumb/v7e-m+fp/hard/libg.a(lib_a-fini.o)
 .comment       0x0000000000000033       0x34 /usr/lib/gcc/arm-none-eabi/10.3.1/../../../arm-none-eabi/lib/thumb/v7e-m+fp/hard/libg.a(lib_a-impure.o)
 .comment       0x0000000000000033       0x34 /usr/lib/gcc/arm-none-eabi/10.3.1/../../../arm-none-eabi/lib/thumb/v7e-m+fp/hard/libg.a(lib_a-init.o)
 .comment       0x0000000000000033       0x34 /usr/lib/gcc/arm-none-eabi/10.3.1/../../../arm-none-eabi/lib/thumb/v7e-m+fp/hard/libg.a(lib_a-__atexit.o)
 .comment       0x0000000000000033       0x34 /usr/lib/gcc/arm-none-eabi/10.3.1/../../../arm-none-eabi/lib/thumb/v7e-m+fp/hard/libg.a(lib_a-__call_atexit.o)
 .comment       0x0000000000000033       0x34 /usr/lib/gcc/arm-none-eabi/10.3.1/thumb/v7e-m+fp/hard/crtend.o

.debug_info     0x0000000000000000     0x344c
 .debug_info    0x0000000000000000      0x15d /tmp/cc9QDufE.o
 .debug_info    0x000000000000015d      0x510 /tmp/ccn3AwlW.o
 .debug_info    0x000000000000066d      0x8b7 /tmp/cctCBNkt.o
 .debug_info    0x0000000000000f24      0x368 /tmp/cc1NF0lS.o
 .debug_info    0x000000000000128c      0x15d /tmp/ccZmCY4Q.o
 .debug_info    0x00000000000013e9       0x30 /tmp/cc4DqqrT.o
 .debug_info    0x0000000000001419      0x100 /usr/lib/gcc/arm-none-eabi/10.3.1/../../../arm-none-eabi/lib/thumb/v7e-m+fp/hard/libg.a(lib_a-atexit.o)
 .debug_info    0x0000000000001519      0x102 /usr/lib/gcc/arm-none-eabi/10.3.1/../../../arm-none-eabi/lib/thumb/v7e-m+fp/hard/libg.a(lib_a-fini.o)
 .debug_info    0x000000000000161b      0x92a /usr/lib/gcc/arm-none-eabi/10.3.1/../../../arm-none-eabi/lib/thumb/v7e-m+fp/hard/libg.a(lib_a-impure.o)
 .debug_info    0x0000000000001f45      0x11a /usr/lib/gcc/arm-none-eabi/10.3.1/../../../arm-none-eabi/lib/thumb/v7e-m+fp/hard/libg.a(lib_a-init.o)
 .debug_info    0x000000000000205f      0x9b0 /usr/lib/gcc/arm-none-eabi/10.3.1/../../../arm-none-eabi/lib/thumb/v7e-m+fp/hard/libg.a(lib_a-__atexit.o)
 .debug_info    0x0000000000002a0f      0xa3d /usr/lib/gcc/arm-none-eabi/10.3.1/../../../arm-none-eabi/lib/thumb/v7e-m+fp/hard/libg.a(lib_a-__call_atexit.o)

.debug_abbrev   0x0000000000000000      0xe83
 .debug_abbrev  0x0000000000000000       0xaf /tmp/cc9QDufE.o
 .debug_abbrev  0x00000000000000af      0x129 /tmp/ccn3AwlW.o
 .debug_abbrev  0x00000000000001d8      0x20a /tmp/cctCBNkt.o
 .debug_abbrev  0x00000000000003e2       0xda /tmp/cc1NF0lS.o
 .debug_abbrev  0x00000000000004bc       0xaf /tmp/ccZmCY4Q.o
 .debug_abbrev  0x000000000000056b       0x1d /tmp/cc4DqqrT.o
 .debug_abbrev  0x0000000000000588       0xb7 /usr/lib/gcc/arm-none-eabi/10.3.1/../../../arm-none-eabi/lib/thumb/v7e-m+fp/hard/libg.a(lib_a-atexit.o)
 .debug_abbrev  0x000000000000063f       0xcf /usr/lib/gcc/arm-none-eabi/10.3.1/../../../arm-none-eabi/lib/thumb/v7e-m+fp/hard/libg.a(lib_a-fini.o)
 .debug_abbrev  0x000000000000070e      0x1b8 /usr/lib/gcc/arm-none-eabi/10.3.1/../../../arm-none-eabi/lib/thumb/v7e-m+fp/hard/libg.a(lib_a-impure.o)
 .debug_abbrev  0x00000000000008c6       0xcc /usr/lib/gcc/arm-none-eabi/10.3.1/../../../arm-none-eabi/lib/thumb/v7e-m+fp/hard/libg.a(lib_a-init.o)
 .debug_abbrev  0x0000000000000992      0x23f /usr/lib/gcc/arm-none-eabi/10.3.1/../../../arm-none-eabi/lib/thumb/v7e-m+fp/hard/libg.a(lib_a-__atexit.o)
 .debug_abbrev  0x0000000000000bd1      0x2b2 /usr/lib/gcc/arm-none-eabi/10.3.1/../../../arm-none-eabi/lib/thumb/v7e-m+fp/hard/libg.a(lib_a-__call_atexit.o)

.debug_aranges  0x0000000000000000      0x1d8
 .debug_aranges
                0x0000000000000000       0x20 /tmp/cc9QDufE.o
 .debug_aranges
                0x0000000000000020       0x28 /tmp/ccn3AwlW.o
 .debug_aranges
                0x0000000000000048       0x58 /tmp/cctCBNkt.o
 .debug_aranges
                0x00000000000000a0       0x30 /tmp/cc1NF0lS.o
 .debug_aranges
                0x00000000000000d0       0x20 /tmp/ccZmCY4Q.o
 .debug_aranges
                0x00000000000000f0       0x28 /tmp/cc4DqqrT.o
 .debug_aranges
                0x0000000000000118       0x20 /usr/lib/gcc/arm-none-eabi/10.3.1/../../../arm-none-eabi/lib/thumb/v7e-m+fp/hard/libg.a(lib_a-atexit.o)
 .debug_aranges
                0x0000000000000138       0x20 /usr/lib/gcc/arm-none-eabi/10.3.1/../../../arm-none-eabi/lib/thumb/v7e-m+fp/hard/libg.a(lib_a-fini.o)
 .debug_aranges
                0x0000000000000158       0x18 /usr/lib/gcc/arm-none-eabi/10.3.1/../../../arm-none-eabi/lib/thumb/v7e-m+fp/hard/libg.a(lib_a-impure.o)
 .debug_aranges
                0x0000000000000170       0x20 /usr/lib/gcc/arm-none-eabi/10.3.1/../../../arm-none-eabi/lib/thumb/v7e-m+fp/hard/libg.a(lib_a-init.o)
 .debug_aranges
                0x0000000000000190       0x20 /usr/lib/gcc/arm-none-eabi/10.3.1/../../../arm-none-eabi/lib/thumb/v7e-m+fp/hard/libg.a(lib_a-__atexit.o)
 .debug_aranges
                0x00000000000001b0       0x28 /usr/lib/gcc/arm-none-eabi/10.3.1/../../../arm-none-eabi/lib/thumb/v7e-m+fp/hard/libg.a(lib_a-__call_atexit.o)

.debug_ranges   0x0000000000000000      0x110
 .debug_ranges  0x0000000000000000       0x10 /tmp/cc9QDufE.o
 .debug_ranges  0x0000000000000010       0x18 /tmp/ccn3AwlW.o
 .debug_ranges  0x0000000000000028       0x48 /tmp/cctCBNkt.o
 .debug_ranges  0x0000000000000070       0x20 /tmp/cc1NF0lS.o
 .debug_ranges  0x0000000000000090       0x10 /tmp/ccZmCY4Q.o
 .debug_ranges  0x00000000000000a0       0x20 /tmp/cc4DqqrT.o
 .debug_ranges  0x00000000000000c0       0x50 /usr/lib/gcc/arm-none-eabi/10.3.1/../../../arm-none-eabi/lib/thumb/v7e-m+fp/hard/libg.a(lib_a-__call_atexit.o)

.debug_macro    0x0000000000000000     0x993a
 .debug_macro   0x0000000000000000       0x90 /tmp/cc9QDufE.o
 .debug_macro   0x0000000000000090      0xa72 /tmp/cc9QDufE.o
 .debug_macro   0x0000000000000b02       0x64 /tmp/cc9QDufE.o
 .debug_macro   0x0000000000000b66      0x34e /tmp/cc9QDufE.o
 .debug_macro   0x0000000000000eb4       0x35 /tmp/cc9QDufE.o
 .debug_macro   0x0000000000000ee9       0x50 /tmp/cc9QDufE.o
 .debug_macro   0x0000000000000f39      0xe66 /tmp/cc9QDufE.o
 .debug_macro   0x0000000000001d9f     0x799d /tmp/cc9QDufE.o
 .debug_macro   0x000000000000973c       0x78 /tmp/ccn3AwlW.o
 .debug_macro   0x00000000000097b4       0x8e /tmp/cctCBNkt.o
 .debug_macro   0x0000000000009842       0x7c /tmp/cc1NF0lS.o
 .debug_macro   0x00000000000098be       0x7c /tmp/ccZmCY4Q.o

.debug_line     0x0000000000000000     0x109d
 .debug_line    0x0000000000000000      0x141 /tmp/cc9QDufE.o
 .debug_line    0x0000000000000141      0x1c5 /tmp/ccn3AwlW.o
 .debug_line    0x0000000000000306      0x23d /tmp/cctCBNkt.o
 .debug_line    0x0000000000000543      0x1d3 /tmp/cc1NF0lS.o
 .debug_line    0x0000000000000716      0x119 /tmp/ccZmCY4Q.o
 .debug_line    0x000000000000082f       0x7a /tmp/cc4DqqrT.o
 .debug_line    0x00000000000008a9       0xc0 /usr/lib/gcc/arm-none-eabi/10.3.1/../../../arm-none-eabi/lib/thumb/v7e-m+fp/hard/libg.a(lib_a-atexit.o)
 .debug_line    0x0000000000000969       0xed /usr/lib/gcc/arm-none-eabi/10.3.1/../../../arm-none-eabi/lib/thumb/v7e-m+fp/hard/libg.a(lib_a-fini.o)
 .debug_line    0x0000000000000a56       0xe4 /usr/lib/gcc/arm-none-eabi/10.3.1/../../../arm-none-eabi/lib/thumb/v7e-m+fp/hard/libg.a(lib_a-impure.o)
 .debug_line    0x0000000000000b3a      0x138 /usr/lib/gcc/arm-none-eabi/10.3.1/../../../arm-none-eabi/lib/thumb/v7e-m+fp/hard/libg.a(lib_a-init.o)
 .debug_line    0x0000000000000c72      0x19e /usr/lib/gcc/arm-none-eabi/10.3.1/../../../arm-none-eabi/lib/thumb/v7e-m+fp/hard/libg.a(lib_a-__atexit.o)
 .debug_line    0x0000000000000e10      0x28d /usr/lib/gcc/arm-none-eabi/10.3.1/../../../arm-none-eabi/lib/thumb/v7e-m+fp/hard/libg.a(lib_a-__call_atexit.o)

.debug_str      0x0000000000000000    0x33b67
 .debug_str     0x0000000000000000    0x32b8e /tmp/cc9QDufE.o
                                      0x32cf1 (size before relaxing)
 .debug_str     0x0000000000032b8e      0x1fa /tmp/ccn3AwlW.o
                                      0x32e86 (size before relaxing)
 .debug_str     0x0000000000032d88      0x549 /tmp/cctCBNkt.o
                                      0x332a1 (size before relaxing)
 .debug_str     0x00000000000332d1       0x78 /tmp/cc1NF0lS.o
                                      0x32e1a (size before relaxing)
 .debug_str     0x0000000000033349       0x16 /tmp/ccZmCY4Q.o
                                      0x32ce7 (size before relaxing)
 .debug_str     0x000000000003335f       0x36 /tmp/cc4DqqrT.o
                                         0x55 (size before relaxing)
 .debug_str     0x0000000000033395      0x154 /usr/lib/gcc/arm-none-eabi/10.3.1/../../../arm-none-eabi/lib/thumb/v7e-m+fp/hard/libg.a(lib_a-atexit.o)
                                        0x1e4 (size before relaxing)
 .debug_str     0x00000000000334e9       0xc8 /usr/lib/gcc/arm-none-eabi/10.3.1/../../../arm-none-eabi/lib/thumb/v7e-m+fp/hard/libg.a(lib_a-fini.o)
                                        0x1dc (size before relaxing)
 .debug_str     0x00000000000335b1      0x453 /usr/lib/gcc/arm-none-eabi/10.3.1/../../../arm-none-eabi/lib/thumb/v7e-m+fp/hard/libg.a(lib_a-impure.o)
                                        0x582 (size before relaxing)
 .debug_str     0x0000000000033a04       0x96 /usr/lib/gcc/arm-none-eabi/10.3.1/../../../arm-none-eabi/lib/thumb/v7e-m+fp/hard/libg.a(lib_a-init.o)
                                        0x206 (size before relaxing)
 .debug_str     0x0000000000033a9a       0x3b /usr/lib/gcc/arm-none-eabi/10.3.1/../../../arm-none-eabi/lib/thumb/v7e-m+fp/hard/libg.a(lib_a-__atexit.o)
                                        0x5bc (size before relaxing)
 .debug_str     0x0000000000033ad5       0x92 /usr/lib/gcc/arm-none-eabi/10.3.1/../../../arm-none-eabi/lib/thumb/v7e-m+fp/hard/libg.a(lib_a-__call_atexit.o)
                                        0x5e8 (size before relaxing)

.debug_frame    0x0000000000000000      0x35c
 .debug_frame   0x0000000000000000       0x2c /tmp/cc9QDufE.o
 .debug_frame   0x000000000000002c       0x58 /tmp/ccn3AwlW.o
 .debug_frame   0x0000000000000084      0x124 /tmp/cctCBNkt.o
 .debug_frame   0x00000000000001a8       0x74 /tmp/cc1NF0lS.o
 .debug_frame   0x000000000000021c       0x30 /tmp/ccZmCY4Q.o
 .debug_frame   0x000000000000024c       0x20 /usr/lib/gcc/arm-none-eabi/10.3.1/../../../arm-none-eabi/lib/thumb/v7e-m+fp/hard/libg.a(lib_a-atexit.o)
 .debug_frame   0x000000000000026c       0x34 /usr/lib/gcc/arm-none-eabi/10.3.1/../../../arm-none-eabi/lib/thumb/v7e-m+fp/hard/libg.a(lib_a-fini.o)
 .debug_frame   0x00000000000002a0       0x2c /usr/lib/gcc/arm-none-eabi/10.3.1/../../../arm-none-eabi/lib/thumb/v7e-m+fp/hard/libg.a(lib_a-init.o)
 .debug_frame   0x00000000000002cc       0x34 /usr/lib/gcc/arm-none-eabi/10.3.1/../../../arm-none-eabi/lib/thumb/v7e-m+fp/hard/libg.a(lib_a-__atexit.o)
 .debug_frame   0x0000000000000300       0x5c /usr/lib/gcc/arm-none-eabi/10.3.1/../../../arm-none-eabi/lib/thumb/v7e-m+fp/hard/libg.a(lib_a-__call_atexit.o)

.debug_loc      0x0000000000000000      0x458
 .debug_loc     0x0000000000000000       0x32 /usr/lib/gcc/arm-none-eabi/10.3.1/../../../arm-none-eabi/lib/thumb/v7e-m+fp/hard/libg.a(lib_a-atexit.o)
 .debug_loc     0x0000000000000032       0x68 /usr/lib/gcc/arm-none-eabi/10.3.1/../../../arm-none-eabi/lib/thumb/v7e-m+fp/hard/libg.a(lib_a-fini.o)
 .debug_loc     0x000000000000009a       0xba /usr/lib/gcc/arm-none-eabi/10.3.1/../../../arm-none-eabi/lib/thumb/v7e-m+fp/hard/libg.a(lib_a-init.o)
 .debug_loc     0x0000000000000154      0x138 /usr/lib/gcc/arm-none-eabi/10.3.1/../../../arm-none-eabi/lib/thumb/v7e-m+fp/hard/libg.a(lib_a-__atexit.o)
 .debug_loc     0x000000000000028c      0x1cc /usr/lib/gcc/arm-none-eabi/10.3.1/../../../arm-none-eabi/lib/thumb/v7e-m+fp/hard/libg.a(lib_a-__call_atexit.o)
